((lp0
S'growingupthick not being able to wear shorts cause it be so hot you get a rash between your thighs from rubbing together so.'
p1
aS'According to our daldridgetnt Joe Johnson has agreed to a 2 year 22M deal with the Utah Jazz.'
p2
aS'This tag can be defined as BBC defence vs German mid fielders Hoping Germany to make a win today Go Germany go Italy or Germany.'
p3
aS'20 I M A MORNING PERSON PPL I m not an anything person Y do u feel the need to wake people up to do morning ppl t.'
p4
aS'Yes it is as we thought folks looks like LNP will again blame ALP if they lose the election ROFLMAO True to form auspol ausvotes.'
p5
aS'LastRelationshipTaughtMe being faithful is just not enough.'
p6
aS'Rihanna amp Drake OFFICIALLY together Read more here Rihanna Drake ANTIWorldTour.'
p7
aS'Photo of what appears to be the car that sparked the the gas line explosion in Melvindale https.'
p8
aS'IAmStillAwakeBecause ugh i cant sleep i can never sLEep.'
p9
aS'I m not going there ChicagoInFourWords.'
p10
a(lp11
S'growingupthick when you sleep over a family members house amp no one can let you borrow jeans cause your considered fat.chaan growingupthick getting thigh rashes burns when wearing shorts dresses etc bc your thighs rub together ALL THE TIME.'
p12
aS'Joe Johnson is heading to the Jazz on a 2 year 22 million deal.Joe Johnson nuevo jugador de Utah Jazz firma por 2 aos y 22M.'
p13
aS'Betfred betting specials for Euro 2016 continue tonight with Germany vs Italy Details.EURO16onSonyLIV So to whom u are going to cheer in today s Italy Vs Germany Take part in Poll at SonyLIV.'
p14
aS'Age 7 I want to be a doctor Age 16 Mum look All A s Age 20 Medicine is hard Age 35 Make some noise for DJ Musa.Breaking All 20 hostages killed during Bangladesh cafe siege were foreign army says.'
p15
aS'Nothing splitting alexbhathal and Feeney4Batman in Batman with preferences playing a huge part in it ausvotes.Does anyone know who Alan Jones bed wetter Lib friend on Channel 7 election coverage just now What a fight ausvotes auspol.'
p16
aS'lastrelationshiptaughtme that loving someone too much will fuck you up.lastrelationshiptaughtme to walk away when you re no longer happy.'
p17
aS'Drake and Rihanna are officially dating.Rihanna and Drake are an official item and it is just TOO GOOD.'
p18
aS'BREAKING Large gas line explosion in Melvindale homes evacuated Prayers up Details https.PHOTO new daylight video of Melvindale explosion scene local4.'
p19
aS'IAmStillAwakeBecause I don t sleep I just retreat to my racist cocoon which doubles as a tanning bed BAD.IAmStillAwakeBecause I couldn t sleep And the sad part is I gotta be to work in like three hours.'
p20
aS'ChicagoInFourWords Example of progressive government.ChicagoInFourWords I WANT TO VISIT.'
p21
atp22
.